	.file	"03.04-01.cpp"
	.text
.Ltext0:
	.local	_ZStL8__ioinit
	.comm	_ZStL8__ioinit,1,1
	.section	.rodata
	.align 4
.LC0:
	.string	"Please enter a floating-point value: "
.LC4:
	.string	"n == "
.LC5:
	.string	"\nn+1 == "
.LC6:
	.string	"\nthree times n == "
.LC7:
	.string	"\ntwice n == "
.LC8:
	.string	"\nn squared == "
.LC9:
	.string	"\nhalf of n == "
.LC10:
	.string	"\nsquare root of n == "
	.text
	.globl	main
	.type	main, @function
main:
.LFB1507:
	.file 1 "03.04-01.cpp"
	.loc 1 14 0
	.cfi_startproc
	pushl	%ebp
	.cfi_def_cfa_offset 8
	.cfi_offset 5, -8
	movl	%esp, %ebp
	.cfi_def_cfa_register 5
	andl	$-16, %esp
	subl	$96, %esp
.LBB2:
	.loc 1 15 0
	movl	$.LC0, 4(%esp)
	movl	$_ZSt4cout, (%esp)
	call	_ZStlsISt11char_traitsIcEERSt13basic_ostreamIcT_ES5_PKc
	.loc 1 17 0
	leal	88(%esp), %eax
	movl	%eax, 4(%esp)
	movl	$_ZSt3cin, (%esp)
	call	_ZNSirsERd
	.loc 1 24 0
	fldl	88(%esp)
	fstpl	(%esp)
	call	sqrt
	fstpl	72(%esp)
	.loc 1 23 0
	fldl	88(%esp)
	fldl	.LC1
	fdivrp	%st, %st(1)
	fstpl	64(%esp)
	.loc 1 22 0
	fldl	88(%esp)
	fldl	88(%esp)
	fmulp	%st, %st(1)
	fstpl	56(%esp)
	.loc 1 21 0
	fldl	88(%esp)
	fld	%st(0)
	faddp	%st, %st(1)
	fstpl	48(%esp)
	.loc 1 20 0
	fldl	88(%esp)
	fldl	.LC2
	fmulp	%st, %st(1)
	fstpl	40(%esp)
	.loc 1 19 0
	fldl	88(%esp)
	fld1
	faddp	%st, %st(1)
	fstpl	32(%esp)
	fldl	88(%esp)
	fstpl	24(%esp)
	.loc 1 18 0
	movl	$.LC4, 4(%esp)
	movl	$_ZSt4cout, (%esp)
	call	_ZStlsISt11char_traitsIcEERSt13basic_ostreamIcT_ES5_PKc
	fldl	24(%esp)
	fstpl	4(%esp)
	movl	%eax, (%esp)
	call	_ZNSolsEd
	.loc 1 19 0
	movl	$.LC5, 4(%esp)
	movl	%eax, (%esp)
	call	_ZStlsISt11char_traitsIcEERSt13basic_ostreamIcT_ES5_PKc
	fldl	32(%esp)
	fstpl	4(%esp)
	movl	%eax, (%esp)
	call	_ZNSolsEd
	.loc 1 20 0
	movl	$.LC6, 4(%esp)
	movl	%eax, (%esp)
	call	_ZStlsISt11char_traitsIcEERSt13basic_ostreamIcT_ES5_PKc
	fldl	40(%esp)
	fstpl	4(%esp)
	movl	%eax, (%esp)
	call	_ZNSolsEd
	.loc 1 21 0
	movl	$.LC7, 4(%esp)
	movl	%eax, (%esp)
	call	_ZStlsISt11char_traitsIcEERSt13basic_ostreamIcT_ES5_PKc
	fldl	48(%esp)
	fstpl	4(%esp)
	movl	%eax, (%esp)
	call	_ZNSolsEd
	.loc 1 22 0
	movl	$.LC8, 4(%esp)
	movl	%eax, (%esp)
	call	_ZStlsISt11char_traitsIcEERSt13basic_ostreamIcT_ES5_PKc
	fldl	56(%esp)
	fstpl	4(%esp)
	movl	%eax, (%esp)
	call	_ZNSolsEd
	.loc 1 23 0
	movl	$.LC9, 4(%esp)
	movl	%eax, (%esp)
	call	_ZStlsISt11char_traitsIcEERSt13basic_ostreamIcT_ES5_PKc
	fldl	64(%esp)
	fstpl	4(%esp)
	movl	%eax, (%esp)
	call	_ZNSolsEd
	.loc 1 24 0
	movl	$.LC10, 4(%esp)
	movl	%eax, (%esp)
	call	_ZStlsISt11char_traitsIcEERSt13basic_ostreamIcT_ES5_PKc
	fldl	72(%esp)
	fstpl	4(%esp)
	movl	%eax, (%esp)
	call	_ZNSolsEd
	.loc 1 25 0
	movl	$10, 4(%esp)
	movl	%eax, (%esp)
	call	_ZStlsISt11char_traitsIcEERSt13basic_ostreamIcT_ES5_c
.LBE2:
	.loc 1 26 0
	movl	$0, %eax
	leave
	.cfi_restore 5
	.cfi_def_cfa 4, 4
	ret
	.cfi_endproc
.LFE1507:
	.size	main, .-main
	.type	_Z41__static_initialization_and_destruction_0ii, @function
_Z41__static_initialization_and_destruction_0ii:
.LFB1518:
	.loc 1 26 0
	.cfi_startproc
	pushl	%ebp
	.cfi_def_cfa_offset 8
	.cfi_offset 5, -8
	movl	%esp, %ebp
	.cfi_def_cfa_register 5
	subl	$24, %esp
	.loc 1 26 0
	cmpl	$1, 8(%ebp)
	jne	.L3
	.loc 1 26 0 is_stmt 0 discriminator 1
	cmpl	$65535, 12(%ebp)
	jne	.L3
	.file 2 "/usr/include/c++/4.8/iostream"
	.loc 2 74 0 is_stmt 1
	movl	$_ZStL8__ioinit, (%esp)
	call	_ZNSt8ios_base4InitC1Ev
	movl	$__dso_handle, 8(%esp)
	movl	$_ZStL8__ioinit, 4(%esp)
	movl	$_ZNSt8ios_base4InitD1Ev, (%esp)
	call	__cxa_atexit
.L3:
	.loc 1 26 0
	leave
	.cfi_restore 5
	.cfi_def_cfa 4, 4
	ret
	.cfi_endproc
.LFE1518:
	.size	_Z41__static_initialization_and_destruction_0ii, .-_Z41__static_initialization_and_destruction_0ii
	.type	_GLOBAL__sub_I_main, @function
_GLOBAL__sub_I_main:
.LFB1519:
	.loc 1 26 0
	.cfi_startproc
	pushl	%ebp
	.cfi_def_cfa_offset 8
	.cfi_offset 5, -8
	movl	%esp, %ebp
	.cfi_def_cfa_register 5
	subl	$24, %esp
	.loc 1 26 0
	movl	$65535, 4(%esp)
	movl	$1, (%esp)
	call	_Z41__static_initialization_and_destruction_0ii
	leave
	.cfi_restore 5
	.cfi_def_cfa 4, 4
	ret
	.cfi_endproc
.LFE1519:
	.size	_GLOBAL__sub_I_main, .-_GLOBAL__sub_I_main
	.section	.init_array,"aw"
	.align 4
	.long	_GLOBAL__sub_I_main
	.section	.rodata
	.align 8
.LC1:
	.long	0
	.long	1073741824
	.align 8
.LC2:
	.long	0
	.long	1074266112
	.text
.Letext0:
	.file 3 "/usr/lib/gcc/i686-linux-gnu/4.8/include/stddef.h"
	.file 4 "/usr/include/i386-linux-gnu/bits/types.h"
	.file 5 "/usr/include/libio.h"
	.file 6 "/usr/include/stdio.h"
	.file 7 "/usr/include/wchar.h"
	.file 8 "/usr/lib/gcc/i686-linux-gnu/4.8/include/stdarg.h"
	.file 9 "/usr/include/c++/4.8/cwchar"
	.file 10 "/usr/include/c++/4.8/bits/char_traits.h"
	.file 11 "/usr/include/i386-linux-gnu/c++/4.8/bits/c++config.h"
	.file 12 "/usr/include/c++/4.8/clocale"
	.file 13 "/usr/include/c++/4.8/bits/ios_base.h"
	.file 14 "/usr/include/c++/4.8/cwctype"
	.file 15 "/usr/include/c++/4.8/cstdlib"
	.file 16 "/usr/include/c++/4.8/iosfwd"
	.file 17 "/usr/include/c++/4.8/new"
	.file 18 "/usr/include/time.h"
	.file 19 "/usr/include/c++/4.8/ext/new_allocator.h"
	.file 20 "/usr/include/c++/4.8/ext/numeric_traits.h"
	.file 21 "/usr/include/c++/4.8/debug/debug.h"
	.file 22 "/usr/include/locale.h"
	.file 23 "/usr/include/i386-linux-gnu/c++/4.8/bits/atomic_word.h"
	.file 24 "/usr/include/wctype.h"
	.file 25 "/usr/include/stdlib.h"
	.file 26 "<built-in>"
	.section	.note.GNU-stack,"",@progbits
